target datalayout = "e-m:e-p270:32:32-p271:32:32-p272:64:64-i64:64-i128:128-f80:128-n8:16:32:64-S128"
target triple = "x86_64-pc-linux-gnu"

%"class.Luau::CodeGen::UnwindBuilderDwarf2" = type { %"class.Luau::CodeGen::UnwindBuilder", i64, %"class.std::vector", [1024 x i8], ptr, ptr }
%"class.Luau::CodeGen::UnwindBuilder" = type { ptr }
%"class.std::vector" = type { %"struct.std::_Vector_base" }
%"struct.std::_Vector_base" = type { %"struct.std::_Vector_base<Luau::CodeGen::UnwindFunctionDwarf2, std::allocator<Luau::CodeGen::UnwindFunctionDwarf2>>::_Vector_impl" }
%"struct.std::_Vector_base<Luau::CodeGen::UnwindFunctionDwarf2, std::allocator<Luau::CodeGen::UnwindFunctionDwarf2>>::_Vector_impl" = type { %"struct.std::_Vector_base<Luau::CodeGen::UnwindFunctionDwarf2, std::allocator<Luau::CodeGen::UnwindFunctionDwarf2>>::_Vector_impl_data" }
%"struct.std::_Vector_base<Luau::CodeGen::UnwindFunctionDwarf2, std::allocator<Luau::CodeGen::UnwindFunctionDwarf2>>::_Vector_impl_data" = type { ptr, ptr, ptr }
%"class.std::initializer_list" = type { ptr, i64 }
%"struct.Luau::CodeGen::A64::RegisterA64" = type { i8 }

; Function Attrs: inlinehint mustprogress nounwind uwtable
define linkonce_odr dso_local noundef ptr @_Z12writeuleb128Phm(ptr noundef %0, i64 noundef %1) #3 comdat {
  %3 = alloca ptr, align 8
  %4 = alloca i64, align 8
  %5 = alloca i8, align 1
  store ptr %0, ptr %3, align 8, !tbaa !23
  store i64 %1, ptr %4, align 8, !tbaa !9
  br label %6

6:                                                ; preds = %23, %2
  call void @llvm.lifetime.start.p0(i64 1, ptr %5) #11
  %7 = load i64, ptr %4, align 8, !tbaa !9
  %8 = and i64 %7, 127
  %9 = trunc i64 %8 to i8
  store i8 %9, ptr %5, align 1, !tbaa !26
  %10 = load i64, ptr %4, align 8, !tbaa !9
  %11 = lshr i64 %10, 7
  store i64 %11, ptr %4, align 8, !tbaa !9
  %12 = load i64, ptr %4, align 8, !tbaa !9
  %13 = icmp ne i64 %12, 0
  br i1 %13, label %14, label %19

14:                                               ; preds = %6
  %15 = load i8, ptr %5, align 1, !tbaa !26
  %16 = zext i8 %15 to i32
  %17 = or i32 %16, 128
  %18 = trunc i32 %17 to i8
  store i8 %18, ptr %5, align 1, !tbaa !26
  br label %19

19:                                               ; preds = %14, %6
  %20 = load i8, ptr %5, align 1, !tbaa !26
  %21 = load ptr, ptr %3, align 8, !tbaa !23
  %22 = getelementptr inbounds nuw i8, ptr %21, i32 1
  store ptr %22, ptr %3, align 8, !tbaa !23
  store i8 %20, ptr %21, align 1, !tbaa !26
  call void @llvm.lifetime.end.p0(i64 1, ptr %5) #11
  br label %23

23:                                               ; preds = %19
  %24 = load i64, ptr %4, align 8, !tbaa !9
  %25 = icmp ne i64 %24, 0
  br i1 %25, label %6, label %26, !llvm.loop !27

26:                                               ; preds = %23
  %27 = load ptr, ptr %3, align 8, !tbaa !23
  ret ptr %27
}

; Function Attrs: inlinehint mustprogress nounwind uwtable
define linkonce_odr dso_local noundef ptr @_Z7writeu8Phh(ptr noundef %0, i8 noundef zeroext %1) #3 comdat {
  %3 = alloca ptr, align 8
  %4 = alloca i8, align 1
  store ptr %0, ptr %3, align 8, !tbaa !23
  store i8 %1, ptr %4, align 1, !tbaa !26
  %5 = load i8, ptr %4, align 1, !tbaa !26
  %6 = load ptr, ptr %3, align 8, !tbaa !23
  store i8 %5, ptr %6, align 1, !tbaa !26
  %7 = load ptr, ptr %3, align 8, !tbaa !23
  %8 = getelementptr inbounds nuw i8, ptr %7, i64 1
  ret ptr %8
}

; Function Attrs: mustprogress nounwind uwtable
define internal noundef ptr @_ZL27defineSavedRegisterLocationPhij(ptr noundef %0, i32 noundef %1, i32 noundef %2) #0 {
  %4 = alloca ptr, align 8
  %5 = alloca i32, align 4
  %6 = alloca i32, align 4
  store ptr %0, ptr %4, align 8, !tbaa !23
  store i32 %1, ptr %5, align 4, !tbaa !24
  store i32 %2, ptr %6, align 4, !tbaa !24
  %7 = load i32, ptr %5, align 4, !tbaa !24
  %8 = icmp sle i32 %7, 63
  br i1 %8, label %9, label %15

9:                                                ; preds = %3
  %10 = load ptr, ptr %4, align 8, !tbaa !23
  %11 = load i32, ptr %5, align 4, !tbaa !24
  %12 = add nsw i32 128, %11
  %13 = trunc i32 %12 to i8
  %14 = call noundef ptr @_Z7writeu8Phh(ptr noundef %10, i8 noundef zeroext %13)
  store ptr %14, ptr %4, align 8, !tbaa !23
  br label %22

15:                                               ; preds = %3
  %16 = load ptr, ptr %4, align 8, !tbaa !23
  %17 = call noundef ptr @_Z7writeu8Phh(ptr noundef %16, i8 noundef zeroext 5)
  store ptr %17, ptr %4, align 8, !tbaa !23
  %18 = load ptr, ptr %4, align 8, !tbaa !23
  %19 = load i32, ptr %5, align 4, !tbaa !24
  %20 = sext i32 %19 to i64
  %21 = call noundef ptr @_Z12writeuleb128Phm(ptr noundef %18, i64 noundef %20)
  store ptr %21, ptr %4, align 8, !tbaa !23
  br label %22

22:                                               ; preds = %15, %9
  %23 = load ptr, ptr %4, align 8, !tbaa !23
  %24 = load i32, ptr %6, align 4, !tbaa !24
  %25 = udiv i32 %24, 8
  %26 = zext i32 %25 to i64
  %27 = call noundef ptr @_Z12writeuleb128Phm(ptr noundef %23, i64 noundef %26)
  store ptr %27, ptr %4, align 8, !tbaa !23
  %28 = load ptr, ptr %4, align 8, !tbaa !23
  ret ptr %28
}

; Function Attrs: mustprogress nounwind uwtable
define linkonce_odr dso_local noundef ptr @_ZNKSt16initializer_listIN4Luau7CodeGen3A6411RegisterA64EE5beginEv(ptr noundef nonnull align 8 dereferenceable(16) %0) #0 comdat align 2 {
  %2 = alloca ptr, align 8
  store ptr %0, ptr %2, align 8, !tbaa !41
  %3 = load ptr, ptr %2, align 8
  %4 = getelementptr inbounds nuw %"class.std::initializer_list", ptr %3, i32 0, i32 0
  %5 = load ptr, ptr %4, align 8, !tbaa !46
  ret ptr %5
}

; Function Attrs: mustprogress nounwind uwtable
define linkonce_odr dso_local noundef i64 @_ZNKSt16initializer_listIN4Luau7CodeGen3A6411RegisterA64EE4sizeEv(ptr noundef nonnull align 8 dereferenceable(16) %0) #0 comdat align 2 {
  %2 = alloca ptr, align 8
  store ptr %0, ptr %2, align 8, !tbaa !41
  %3 = load ptr, ptr %2, align 8
  %4 = getelementptr inbounds nuw %"class.std::initializer_list", ptr %3, i32 0, i32 1
  %5 = load i64, ptr %4, align 8, !tbaa !43
  ret i64 %5
}

; Function Attrs: mustprogress nounwind uwtable
define internal noundef ptr @_ZL25defineCfaExpressionOffsetPhj(ptr noundef %0, i32 noundef %1) #0 {
  %3 = alloca ptr, align 8
  %4 = alloca i32, align 4
  store ptr %0, ptr %3, align 8, !tbaa !23
  store i32 %1, ptr %4, align 4, !tbaa !24
  %5 = load ptr, ptr %3, align 8, !tbaa !23
  %6 = call noundef ptr @_Z7writeu8Phh(ptr noundef %5, i8 noundef zeroext 14)
  store ptr %6, ptr %3, align 8, !tbaa !23
  %7 = load ptr, ptr %3, align 8, !tbaa !23
  %8 = load i32, ptr %4, align 4, !tbaa !24
  %9 = zext i32 %8 to i64
  %10 = call noundef ptr @_Z12writeuleb128Phm(ptr noundef %7, i64 noundef %9)
  store ptr %10, ptr %3, align 8, !tbaa !23
  %11 = load ptr, ptr %3, align 8, !tbaa !23
  ret ptr %11
}

; Function Attrs: mustprogress nounwind uwtable
define internal noundef ptr @_ZL15advanceLocationPhj(ptr noundef %0, i32 noundef %1) #0 {
  %3 = alloca ptr, align 8
  %4 = alloca i32, align 4
  store ptr %0, ptr %3, align 8, !tbaa !23
  store i32 %1, ptr %4, align 4, !tbaa !24
  %5 = load ptr, ptr %3, align 8, !tbaa !23
  %6 = call noundef ptr @_Z7writeu8Phh(ptr noundef %5, i8 noundef zeroext 2)
  store ptr %6, ptr %3, align 8, !tbaa !23
  %7 = load ptr, ptr %3, align 8, !tbaa !23
  %8 = load i32, ptr %4, align 4, !tbaa !24
  %9 = trunc i32 %8 to i8
  %10 = call noundef ptr @_Z7writeu8Phh(ptr noundef %7, i8 noundef zeroext %9)
  store ptr %10, ptr %3, align 8, !tbaa !23
  %11 = load ptr, ptr %3, align 8, !tbaa !23
  ret ptr %11
}

; Function Attrs: mustprogress uwtable
define dso_local void @_ZN4Luau7CodeGen19UnwindBuilderDwarf211prologueA64EjjSt16initializer_listINS0_3A6411RegisterA64EE(ptr noundef nonnull align 8 dereferenceable(1080) %0, i32 noundef %1, i32 noundef %2, ptr %3, i64 %4) unnamed_addr #1 align 2 {
  %6 = alloca %"class.std::initializer_list", align 8
  %7 = alloca ptr, align 8
  %8 = alloca i32, align 4
  %9 = alloca i32, align 4
  %10 = alloca i64, align 8
  %11 = getelementptr inbounds nuw { ptr, i64 }, ptr %6, i32 0, i32 0
  store ptr %3, ptr %11, align 8
  %12 = getelementptr inbounds nuw { ptr, i64 }, ptr %6, i32 0, i32 1
  store i64 %4, ptr %12, align 8
  store ptr %0, ptr %7, align 8, !tbaa !4
  store i32 %1, ptr %8, align 4, !tbaa !24
  store i32 %2, ptr %9, align 4, !tbaa !24
  %13 = load ptr, ptr %7, align 8
  %14 = getelementptr inbounds nuw %"class.Luau::CodeGen::UnwindBuilderDwarf2", ptr %13, i32 0, i32 4
  %15 = load ptr, ptr %14, align 8, !tbaa !22
  %16 = call noundef ptr @_ZL15advanceLocationPhj(ptr noundef %15, i32 noundef 4)
  %17 = getelementptr inbounds nuw %"class.Luau::CodeGen::UnwindBuilderDwarf2", ptr %13, i32 0, i32 4
  store ptr %16, ptr %17, align 8, !tbaa !22
  %18 = getelementptr inbounds nuw %"class.Luau::CodeGen::UnwindBuilderDwarf2", ptr %13, i32 0, i32 4
  %19 = load ptr, ptr %18, align 8, !tbaa !22
  %20 = load i32, ptr %9, align 4, !tbaa !24
  %21 = call noundef ptr @_ZL25defineCfaExpressionOffsetPhj(ptr noundef %19, i32 noundef %20)
  %22 = getelementptr inbounds nuw %"class.Luau::CodeGen::UnwindBuilderDwarf2", ptr %13, i32 0, i32 4
  store ptr %21, ptr %22, align 8, !tbaa !22
  %23 = getelementptr inbounds nuw %"class.Luau::CodeGen::UnwindBuilderDwarf2", ptr %13, i32 0, i32 4
  %24 = load ptr, ptr %23, align 8, !tbaa !22
  %25 = load i32, ptr %8, align 4, !tbaa !24
  %26 = sub i32 %25, 4
  %27 = call noundef ptr @_ZL15advanceLocationPhj(ptr noundef %24, i32 noundef %26)
  %28 = getelementptr inbounds nuw %"class.Luau::CodeGen::UnwindBuilderDwarf2", ptr %13, i32 0, i32 4
  store ptr %27, ptr %28, align 8, !tbaa !22
  call void @llvm.lifetime.start.p0(i64 8, ptr %10) #11
  store i64 0, ptr %10, align 8, !tbaa !9
  br label %29

29:                                               ; preds = %50, %5
  %30 = load i64, ptr %10, align 8, !tbaa !9
  %31 = call noundef i64 @_ZNKSt16initializer_listIN4Luau7CodeGen3A6411RegisterA64EE4sizeEv(ptr noundef nonnull align 8 dereferenceable(16) %6) #11
  %32 = icmp ult i64 %30, %31
  br i1 %32, label %34, label %33

33:                                               ; preds = %29
  call void @llvm.lifetime.end.p0(i64 8, ptr %10) #11
  br label %53

34:                                               ; preds = %29
  %35 = getelementptr inbounds nuw %"class.Luau::CodeGen::UnwindBuilderDwarf2", ptr %13, i32 0, i32 4
  %36 = load ptr, ptr %35, align 8, !tbaa !22
  %37 = call noundef ptr @_ZNKSt16initializer_listIN4Luau7CodeGen3A6411RegisterA64EE5beginEv(ptr noundef nonnull align 8 dereferenceable(16) %6) #11
  %38 = load i64, ptr %10, align 8, !tbaa !9
  %39 = getelementptr inbounds nuw %"struct.Luau::CodeGen::A64::RegisterA64", ptr %37, i64 %38
  %40 = load i8, ptr %39, align 1
  %41 = lshr i8 %40, 3
  %42 = zext i8 %41 to i32
  %43 = load i32, ptr %9, align 4, !tbaa !24
  %44 = load i64, ptr %10, align 8, !tbaa !9
  %45 = mul i64 %44, 8
  %46 = trunc i64 %45 to i32
  %47 = sub i32 %43, %46
  %48 = call noundef ptr @_ZL27defineSavedRegisterLocationPhij(ptr noundef %36, i32 noundef %42, i32 noundef %47)
  %49 = getelementptr inbounds nuw %"class.Luau::CodeGen::UnwindBuilderDwarf2", ptr %13, i32 0, i32 4
  store ptr %48, ptr %49, align 8, !tbaa !22
  br label %50

50:                                               ; preds = %34
  %51 = load i64, ptr %10, align 8, !tbaa !9
  %52 = add i64 %51, 1
  store i64 %52, ptr %10, align 8, !tbaa !9
  br label %29, !llvm.loop !40

53:                                               ; preds = %33
  ret void
}