; Function Attrs: mustprogress nofree norecurse nosync nounwind memory(write, argmem: readwrite, inaccessiblemem: none) uwtable
define dso_local void @_ZN4Luau7CodeGen19UnwindBuilderDwarf211prologueA64EjjSt16initializer_listINS0_3A6411RegisterA64EE(ptr noundef nonnull align 8 captures(none) dereferenceable(1080) %0, i32 noundef %1, i32 noundef %2, ptr readonly captures(none) %3, i64 %4) unnamed_addr #4 align 2 {
  %6 = getelementptr inbounds nuw i8, ptr %0, i64 1064
  %7 = load ptr, ptr %6, align 8, !tbaa !17
  store i8 2, ptr %7, align 1, !tbaa !18
  %8 = getelementptr inbounds nuw i8, ptr %7, i64 1
  store i8 4, ptr %8, align 1, !tbaa !18
  %9 = getelementptr inbounds nuw i8, ptr %7, i64 2
  store i8 14, ptr %9, align 1, !tbaa !18
  %10 = getelementptr inbounds nuw i8, ptr %7, i64 3
  %11 = zext i32 %2 to i64
  br label %12

12:                                               ; preds = %12, %5
  %.08.i.i = phi ptr [ %10, %5 ], [ %16, %12 ]
  %.07.i.i = phi i64 [ %11, %5 ], [ %15, %12 ]
  %13 = trunc i64 %.07.i.i to i8
  %14 = and i8 %13, 127
  %15 = lshr i64 %.07.i.i, 7
  %.not.i.i = icmp samesign ult i64 %.07.i.i, 128
  %masksel.i.i = select i1 %.not.i.i, i8 0, i8 -128
  %.0.i.i = or disjoint i8 %14, %masksel.i.i
  %16 = getelementptr inbounds nuw i8, ptr %.08.i.i, i64 1
  store i8 %.0.i.i, ptr %.08.i.i, align 1, !tbaa !18
  br i1 %.not.i.i, label %_ZL25defineCfaExpressionOffsetPhj.exit, label %12, !llvm.loop !19

_ZL25defineCfaExpressionOffsetPhj.exit:           ; preds = %12
  store i8 2, ptr %16, align 1, !tbaa !18
  %17 = getelementptr inbounds nuw i8, ptr %.08.i.i, i64 2
  %18 = trunc i32 %1 to i8
  %19 = add i8 %18, -4
  store i8 %19, ptr %17, align 1, !tbaa !18
  %20 = getelementptr inbounds nuw i8, ptr %.08.i.i, i64 3
  store ptr %20, ptr %6, align 8, !tbaa !17
  %.not = icmp eq i64 %4, 0
  br i1 %.not, label %._crit_edge, label %.lr.ph

._crit_edge:                                      ; preds = %_ZL27defineSavedRegisterLocationPhij.exit, %_ZL25defineCfaExpressionOffsetPhj.exit
  ret void

.lr.ph:                                           ; preds = %_ZL25defineCfaExpressionOffsetPhj.exit, %_ZL27defineSavedRegisterLocationPhij.exit
  %21 = phi ptr [ %35, %_ZL27defineSavedRegisterLocationPhij.exit ], [ %20, %_ZL25defineCfaExpressionOffsetPhj.exit ]
  %.013 = phi i64 [ %36, %_ZL27defineSavedRegisterLocationPhij.exit ], [ 0, %_ZL25defineCfaExpressionOffsetPhj.exit ]
  %22 = getelementptr inbounds nuw %"struct.Luau::CodeGen::A64::RegisterA64", ptr %3, i64 %.013
  %23 = load i8, ptr %22, align 1
  %24 = lshr i8 %23, 3
  %.0.tr = trunc i64 %.013 to i32
  %25 = shl i32 %.0.tr, 3
  %26 = sub i32 %2, %25
  %27 = or disjoint i8 %24, -128
  store i8 %27, ptr %21, align 1, !tbaa !18
  %28 = getelementptr inbounds nuw i8, ptr %21, i64 1
  %29 = lshr i32 %26, 3
  %30 = zext nneg i32 %29 to i64
  br label %31

31:                                               ; preds = %31, %.lr.ph
  %.08.i9.i = phi ptr [ %28, %.lr.ph ], [ %35, %31 ]
  %.07.i10.i = phi i64 [ %30, %.lr.ph ], [ %34, %31 ]
  %32 = trunc i64 %.07.i10.i to i8
  %33 = and i8 %32, 127
  %34 = lshr i64 %.07.i10.i, 7
  %.not.i11.i = icmp samesign ult i64 %.07.i10.i, 128
  %masksel.i12.i = select i1 %.not.i11.i, i8 0, i8 -128
  %.0.i13.i = or disjoint i8 %33, %masksel.i12.i
  %35 = getelementptr inbounds nuw i8, ptr %.08.i9.i, i64 1
  store i8 %.0.i13.i, ptr %.08.i9.i, align 1, !tbaa !18
  br i1 %.not.i11.i, label %_ZL27defineSavedRegisterLocationPhij.exit, label %31, !llvm.loop !19

_ZL27defineSavedRegisterLocationPhij.exit:        ; preds = %31
  store ptr %35, ptr %6, align 8, !tbaa !17
  %36 = add nuw i64 %.013, 1
  %exitcond.not = icmp eq i64 %36, %4
  br i1 %exitcond.not, label %._crit_edge, label %.lr.ph, !llvm.loop !31
}